Certificate:
    Data:
        Version: 3 (0x2)
        Serial Number: 1 (0x1)
        Signature Algorithm: sha256WithRSAEncryption
        Issuer: C=AU, ST=Some-State, O=Internet Widgits Pty Ltd, CN=UBUNTU18
        Validity
            Not Before: Aug 10 07:39:24 2021 GMT
            Not After : Aug 10 07:39:24 2022 GMT
        Subject: C=AU, ST=Some-State, O=Internet Widgits Pty Ltd, CN=*
        Subject Public Key Info:
            Public Key Algorithm: rsaEncryption
                RSA Public-Key: (2048 bit)
                Modulus:
                    00:e7:ad:8f:e2:66:ee:36:8a:89:28:54:32:29:eb:
                    9e:50:12:bf:5f:a6:72:94:74:dd:33:a3:6f:0c:da:
                    e1:5f:47:fe:fc:9f:99:72:bb:08:7c:26:f6:56:f4:
                    8b:3b:2a:9d:e7:a9:2a:37:52:ac:89:59:44:3d:91:
                    0a:aa:b7:72:04:7f:0a:bb:88:34:22:28:c1:c4:5c:
                    39:b1:99:bb:6f:d3:c6:af:d8:ad:6a:19:1e:fe:95:
                    e7:8c:09:40:e4:ab:87:dd:79:a8:5b:2a:07:73:b2:
                    60:17:ee:1c:95:1c:4c:62:dc:16:1d:94:ff:7e:dc:
                    7d:8e:2a:e6:21:64:ce:4f:aa:3c:ea:5a:c2:93:08:
                    f3:c3:e4:4c:f6:9c:07:8a:90:e4:5e:3e:15:88:db:
                    a2:6b:e5:5d:40:69:c5:05:6e:ed:35:a0:c8:63:75:
                    da:fe:9d:3b:76:0b:9c:c6:48:a2:1f:ab:97:6c:a7:
                    9a:34:e8:bc:70:e6:8b:21:d1:17:0d:11:d9:b5:7b:
                    e3:a3:bd:70:00:1f:e4:0c:d0:f1:37:c2:e5:b7:ff:
                    08:91:d5:e7:13:dd:31:d2:24:5a:1b:6a:ca:25:fe:
                    fa:63:34:28:17:81:a0:3c:bd:ea:0e:f3:c9:bc:c2:
                    d1:a3:2d:f9:99:08:40:3f:bf:2d:d0:e4:5c:b1:c1:
                    e1:87
                Exponent: 65537 (0x10001)
        X509v3 extensions:
            X509v3 Basic Constraints: 
                CA:FALSE
            Netscape Comment: 
                OpenSSL Generated Certificate
            X509v3 Subject Key Identifier: 
                0F:7D:98:B7:8D:3B:A8:11:18:A5:D5:16:70:9D:A6:CB:36:85:1D:E3
            X509v3 Authority Key Identifier: 
                DirName:/C=AU/ST=Some-State/O=Internet Widgits Pty Ltd/CN=UBUNTU18
                serial:5D:62:C2:17:9E:21:C4:A4:A3:70:9A:B5:D7:84:56:85:81:28:CB:A6

    Signature Algorithm: sha256WithRSAEncryption
         0e:7e:7d:f8:7a:62:56:97:d4:8d:2a:6a:ff:38:0a:42:55:ad:
         67:8a:95:6e:5c:03:4f:48:04:2f:3f:b4:29:c7:50:4c:7f:fa:
         c6:07:31:c3:de:37:c3:82:17:77:32:d3:22:a2:fa:f0:63:fa:
         fd:ef:e3:a3:88:2f:11:7c:e8:f8:36:b1:c9:b0:c3:79:2f:4c:
         04:4e:ce:79:74:45:5b:ef:fb:68:ed:ba:5c:c6:fd:9a:53:d5:
         6c:0b:56:8d:d3:33:8d:25:25:19:23:55:a3:1e:79:8d:98:2b:
         08:b3:d5:5a:13:0a:ef:51:b9:c7:9c:32:32:95:7b:12:32:0c:
         86:b2:e0:2f:9b:3a:d7:b5:7c:c7:da:f4:52:28:8b:ad:9f:76:
         df:1d:27:48:36:6b:eb:51:54:e5:fa:ee:c8:fd:7f:09:e2:be:
         33:0d:54:98:e8:22:3b:5b:b9:a5:fb:aa:f1:65:76:f6:cc:96:
         3f:80:04:62:1f:de:0b:aa:21:53:f8:05:f9:d9:6b:96:db:06:
         39:64:70:71:56:be:97:c0:cf:9e:dd:e2:37:5c:d3:d6:f1:86:
         21:92:5a:bd:2b:1a:72:bc:4b:cb:13:98:a8:a8:44:7e:17:1f:
         8a:1d:0d:10:b2:94:be:f8:0e:ee:c4:60:1b:ea:46:0b:b9:3d:
         e4:c0:70:a9
-----BEGIN CERTIFICATE-----
MIID/zCCAuegAwIBAgIBATANBgkqhkiG9w0BAQsFADBYMQswCQYDVQQGEwJBVTET
MBEGA1UECAwKU29tZS1TdGF0ZTEhMB8GA1UECgwYSW50ZXJuZXQgV2lkZ2l0cyBQ
dHkgTHRkMREwDwYDVQQDDAhVQlVOVFUxODAeFw0yMTA4MTAwNzM5MjRaFw0yMjA4
MTAwNzM5MjRaMFExCzAJBgNVBAYTAkFVMRMwEQYDVQQIDApTb21lLVN0YXRlMSEw
HwYDVQQKDBhJbnRlcm5ldCBXaWRnaXRzIFB0eSBMdGQxCjAIBgNVBAMMASowggEi
MA0GCSqGSIb3DQEBAQUAA4IBDwAwggEKAoIBAQDnrY/iZu42iokoVDIp655QEr9f
pnKUdN0zo28M2uFfR/78n5lyuwh8JvZW9Is7Kp3nqSo3UqyJWUQ9kQqqt3IEfwq7
iDQiKMHEXDmxmbtv08av2K1qGR7+leeMCUDkq4fdeahbKgdzsmAX7hyVHExi3BYd
lP9+3H2OKuYhZM5PqjzqWsKTCPPD5Ez2nAeKkORePhWI26Jr5V1AacUFbu01oMhj
ddr+nTt2C5zGSKIfq5dsp5o06Lxw5osh0RcNEdm1e+OjvXAAH+QM0PE3wuW3/wiR
1ecT3THSJFobasol/vpjNCgXgaA8veoO88m8wtGjLfmZCEA/vy3Q5FyxweGHAgMB
AAGjgdowgdcwCQYDVR0TBAIwADAsBglghkgBhvhCAQ0EHxYdT3BlblNTTCBHZW5l
cmF0ZWQgQ2VydGlmaWNhdGUwHQYDVR0OBBYEFA99mLeNO6gRGKXVFnCdpss2hR3j
MH0GA1UdIwR2MHShXKRaMFgxCzAJBgNVBAYTAkFVMRMwEQYDVQQIDApTb21lLVN0
YXRlMSEwHwYDVQQKDBhJbnRlcm5ldCBXaWRnaXRzIFB0eSBMdGQxETAPBgNVBAMM
CFVCVU5UVTE4ghRdYsIXniHEpKNwmrXXhFaFgSjLpjANBgkqhkiG9w0BAQsFAAOC
AQEADn59+HpiVpfUjSpq/zgKQlWtZ4qVblwDT0gELz+0KcdQTH/6xgcxw943w4IX
dzLTIqL68GP6/e/jo4gvEXzo+DaxybDDeS9MBE7OeXRFW+/7aO26XMb9mlPVbAtW
jdMzjSUlGSNVox55jZgrCLPVWhMK71G5x5wyMpV7EjIMhrLgL5s617V8x9r0UiiL
rZ923x0nSDZr61FU5fruyP1/CeK+Mw1UmOgiO1u5pfuq8WV29syWP4AEYh/eC6oh
U/gF+dlrltsGOWRwcVa+l8DPnt3iN1zT1vGGIZJavSsacrxLyxOYqKhEfhcfih0N
ELKUvvgO7sRgG+pGC7k95MBwqQ==
-----END CERTIFICATE-----
